target datalayout = "e-m:e-p270:32:32-p271:32:32-p272:64:64-i64:64-i128:128-f80:128-n8:16:32:64-S128"
target triple = "x86_64-pc-linux-gnu"

%struct.ASN1_ENCODING_st = type { ptr, i64, i32 }
%struct.X509_algor_st = type { ptr, ptr }
%struct.CRYPTO_REF_COUNT = type { i32 }
%struct.X509_req_st = type { %struct.X509_req_info_st, %struct.X509_algor_st, ptr, %struct.CRYPTO_REF_COUNT, ptr, ptr, ptr, ptr }
%struct.X509_req_info_st = type { %struct.ASN1_ENCODING_st, ptr, ptr, ptr, ptr }

@.str = private unnamed_addr constant [34 x i8] c"../openssl/crypto/x509/x509_req.c\00", align 1
@__func__.X509_REQ_delete_attr = private unnamed_addr constant [21 x i8] c"X509_REQ_delete_attr\00", align 1

; Function Attrs: nounwind uwtable
define ptr @X509_REQ_delete_attr(ptr noundef %0, i32 noundef %1) #0 {
  %3 = alloca ptr, align 8
  %4 = alloca ptr, align 8
  %5 = alloca i32, align 4
  %6 = alloca ptr, align 8
  %7 = alloca i32, align 4
  store ptr %0, ptr %4, align 8, !tbaa !42
  store i32 %1, ptr %5, align 4, !tbaa !52
  call void @llvm.lifetime.start.p0(i64 8, ptr %6) #4
  %8 = load ptr, ptr %4, align 8, !tbaa !42
  %9 = icmp eq ptr %8, null
  br i1 %9, label %10, label %11

10:                                               ; preds = %2
  call void @ERR_new()
  call void @ERR_set_debug(ptr noundef @.str, i32 noundef 241, ptr noundef @__func__.X509_REQ_delete_attr)
  call void (i32, i32, ptr, ...) @ERR_set_error(i32 noundef 11, i32 noundef 786690, ptr noundef null)
  store ptr null, ptr %3, align 8
  store i32 1, ptr %7, align 4
  br label %27

11:                                               ; preds = %2
  %12 = load ptr, ptr %4, align 8, !tbaa !42
  %13 = getelementptr inbounds nuw %struct.X509_req_st, ptr %12, i32 0, i32 0
  %14 = getelementptr inbounds nuw %struct.X509_req_info_st, ptr %13, i32 0, i32 4
  %15 = load ptr, ptr %14, align 8, !tbaa !66
  %16 = load i32, ptr %5, align 4, !tbaa !52
  %17 = call ptr @X509at_delete_attr(ptr noundef %15, i32 noundef %16)
  store ptr %17, ptr %6, align 8, !tbaa !61
  %18 = load ptr, ptr %6, align 8, !tbaa !61
  %19 = icmp ne ptr %18, null
  br i1 %19, label %20, label %25

20:                                               ; preds = %11
  %21 = load ptr, ptr %4, align 8, !tbaa !42
  %22 = getelementptr inbounds nuw %struct.X509_req_st, ptr %21, i32 0, i32 0
  %23 = getelementptr inbounds nuw %struct.X509_req_info_st, ptr %22, i32 0, i32 0
  %24 = getelementptr inbounds nuw %struct.ASN1_ENCODING_st, ptr %23, i32 0, i32 2
  store i32 1, ptr %24, align 8, !tbaa !67
  br label %25

25:                                               ; preds = %20, %11
  %26 = load ptr, ptr %6, align 8, !tbaa !61
  store ptr %26, ptr %3, align 8
  store i32 1, ptr %7, align 4
  br label %27

27:                                               ; preds = %25, %10
  call void @llvm.lifetime.end.p0(i64 8, ptr %6) #4
  %28 = load ptr, ptr %3, align 8
  ret ptr %28
}