; Function Attrs: nounwind uwtable
define ptr @X509_REQ_delete_attr(ptr noundef captures(address_is_null) %0, i32 noundef %1) local_unnamed_addr #0 {
  %3 = icmp eq ptr %0, null
  br i1 %3, label %4, label %5

4:                                                ; preds = %2
  tail call void @ERR_new() #8
  tail call void @ERR_set_debug(ptr noundef nonnull @.str, i32 noundef 241, ptr noundef nonnull @__func__.X509_REQ_delete_attr) #8
  tail call void (i32, i32, ptr, ...) @ERR_set_error(i32 noundef 11, i32 noundef 786690, ptr noundef null) #8
  br label %11

5:                                                ; preds = %2
  %6 = getelementptr inbounds nuw i8, ptr %0, i64 48
  %7 = load ptr, ptr %6, align 8, !tbaa !49
  %8 = tail call ptr @X509at_delete_attr(ptr noundef %7, i32 noundef %1) #8
  %.not = icmp eq ptr %8, null
  br i1 %.not, label %11, label %9

9:                                                ; preds = %5
  %10 = getelementptr inbounds nuw i8, ptr %0, i64 16
  store i32 1, ptr %10, align 8, !tbaa !54
  br label %11

11:                                               ; preds = %5, %9, %4
  %.0 = phi ptr [ null, %4 ], [ %8, %9 ], [ null, %5 ]
  ret ptr %.0
}